; Function Attrs: nounwind uwtable
define noalias nonnull ptr @l_Lean_Compiler_LCNF_Probe_tail___rarg(ptr noundef %0, ptr noundef %1, ptr readnone captures(none) %2, ptr readnone captures(none) %3, ptr readnone captures(none) %4, ptr readnone captures(none) %5, ptr noundef %6) local_unnamed_addr #0 {
  %8 = getelementptr i8, ptr %1, i64 8
  %.val18 = load i64, ptr %8, align 8, !tbaa !12
  %9 = ptrtoint ptr %0 to i64
  %10 = and i64 %9, 1
  %.not = icmp eq i64 %10, 0
  br i1 %.not, label %.critedge.i, label %11, !prof !17

11:                                               ; preds = %7
  %12 = and i64 %.val18, 9223372036854775807
  %13 = lshr i64 %9, 1
  %14 = icmp samesign ult i64 %12, %13
  br i1 %14, label %lean_dec.exit15, label %15

15:                                               ; preds = %11
  %16 = sub nuw nsw i64 %12, %13
  %17 = shl nuw i64 %16, 1
  %18 = or disjoint i64 %17, 1
  %19 = inttoptr i64 %18 to ptr
  br label %lean_dec.exit15

.critedge.i:                                      ; preds = %7
  %20 = shl i64 %.val18, 1
  %21 = or disjoint i64 %20, 1
  %22 = inttoptr i64 %21 to ptr
  %23 = tail call ptr @lean_nat_big_sub(ptr noundef nonnull %22, ptr noundef %0) #4
  %.val.pre = load i64, ptr %8, align 8, !tbaa !12
  br label %lean_dec.exit15

lean_dec.exit15:                                  ; preds = %.critedge.i, %15, %11
  %.val = phi i64 [ %.val.pre, %.critedge.i ], [ %.val18, %15 ], [ %.val18, %11 ]
  %.1.i = phi ptr [ %23, %.critedge.i ], [ %19, %15 ], [ inttoptr (i64 1 to ptr), %11 ]
  %24 = shl i64 %.val, 1
  %25 = or disjoint i64 %24, 1
  %26 = inttoptr i64 %25 to ptr
  %27 = tail call ptr @l_Array_toSubarray___rarg(ptr noundef nonnull %1, ptr noundef %.1.i, ptr noundef nonnull %26) #4
  %28 = tail call ptr @l_Array_ofSubarray___rarg(ptr noundef %27) #4
  %29 = ptrtoint ptr %27 to i64
  %30 = and i64 %29, 1
  %.not19 = icmp eq i64 %30, 0
  br i1 %.not19, label %31, label %lean_dec.exit

31:                                               ; preds = %lean_dec.exit15
  %32 = load i32, ptr %27, align 4, !tbaa !4
  %33 = icmp sgt i32 %32, 1
  br i1 %33, label %34, label %36, !prof !9

34:                                               ; preds = %31
  %35 = add nsw i32 %32, -1
  store i32 %35, ptr %27, align 4, !tbaa !4
  br label %lean_dec.exit

36:                                               ; preds = %31
  %.not.i16 = icmp eq i32 %32, 0
  br i1 %.not.i16, label %lean_dec.exit, label %37

37:                                               ; preds = %36
  tail call void @lean_dec_ref_cold(ptr noundef nonnull %27) #4
  br label %lean_dec.exit

lean_dec.exit:                                    ; preds = %37, %36, %34, %lean_dec.exit15
  tail call void @lean_inc_heartbeat() #4
  %38 = tail call noalias ptr @mi_malloc_small(i64 noundef 24) #4
  %39 = icmp eq ptr %38, null
  br i1 %39, label %40, label %lean_alloc_ctor.exit

40:                                               ; preds = %lean_dec.exit
  tail call void @lean_internal_panic_out_of_memory() #5
  unreachable

lean_alloc_ctor.exit:                             ; preds = %lean_dec.exit
  %41 = getelementptr inbounds nuw i8, ptr %38, i64 4
  store i32 1, ptr %38, align 4, !tbaa !4
  store i32 131096, ptr %41, align 4
  %42 = getelementptr inbounds nuw i8, ptr %38, i64 8
  store ptr %28, ptr %42, align 8, !tbaa !10
  %43 = getelementptr inbounds nuw i8, ptr %38, i64 16
  store ptr %6, ptr %43, align 8, !tbaa !10
  ret ptr %38
}